target datalayout = "e-m:e-p270:32:32-p271:32:32-p272:64:64-i64:64-i128:128-f80:128-n8:16:32:64-S128"
target triple = "x86_64-pc-linux-gnu"

%struct._object = type { %union.anon, ptr }
%union.anon = type { i64 }
%struct.passwd = type { ptr, ptr, i32, i32, ptr, ptr, ptr }

@PyExc_KeyError = external global ptr, align 8
@PyExc_TypeError = external global ptr, align 8
@.str.7 = private unnamed_addr constant [40 x i8] c"getpwnam() argument must be str, not %T\00", align 1
@.str.8 = private unnamed_addr constant [31 x i8] c"getpwnam(): name not found: %R\00", align 1

; Function Attrs: inlinehint nounwind uwtable
define internal void @Py_DECREF(ptr noundef %0) #4 {
  %2 = alloca ptr, align 8
  store ptr %0, ptr %2, align 8, !tbaa !4
  %3 = load ptr, ptr %2, align 8, !tbaa !4
  call void @_Py_DecRef(ptr noundef %3)
  ret void
}

; Function Attrs: nounwind uwtable
define internal ptr @pwd_getpwnam_impl(ptr noundef %0, ptr noundef %1) #0 {
  %3 = alloca ptr, align 8
  %4 = alloca ptr, align 8
  %5 = alloca ptr, align 8
  %6 = alloca ptr, align 8
  %7 = alloca ptr, align 8
  %8 = alloca ptr, align 8
  %9 = alloca i32, align 4
  %10 = alloca ptr, align 8
  %11 = alloca ptr, align 8
  %12 = alloca ptr, align 8
  %13 = alloca i32, align 4
  %14 = alloca i32, align 4
  %15 = alloca i64, align 8
  %16 = alloca %struct.passwd, align 8
  %17 = alloca ptr, align 8
  store ptr %0, ptr %4, align 8, !tbaa !4
  store ptr %1, ptr %5, align 8, !tbaa !4
  call void @llvm.lifetime.start.p0(i64 8, ptr %6) #6
  store ptr null, ptr %6, align 8, !tbaa !18
  call void @llvm.lifetime.start.p0(i64 8, ptr %7) #6
  store ptr null, ptr %7, align 8, !tbaa !18
  call void @llvm.lifetime.start.p0(i64 8, ptr %8) #6
  call void @llvm.lifetime.start.p0(i64 4, ptr %9) #6
  store i32 0, ptr %9, align 4, !tbaa !13
  call void @llvm.lifetime.start.p0(i64 8, ptr %10) #6
  call void @llvm.lifetime.start.p0(i64 8, ptr %11) #6
  call void @llvm.lifetime.start.p0(i64 8, ptr %12) #6
  store ptr null, ptr %12, align 8, !tbaa !4
  %18 = load ptr, ptr %5, align 8, !tbaa !4
  %19 = call ptr @PyUnicode_EncodeFSDefault(ptr noundef %18)
  store ptr %19, ptr %11, align 8, !tbaa !4
  %20 = icmp eq ptr %19, null
  br i1 %20, label %21, label %22

21:                                               ; preds = %2
  store ptr null, ptr %3, align 8
  store i32 1, ptr %13, align 4
  br label %87

22:                                               ; preds = %2
  %23 = load ptr, ptr %11, align 8, !tbaa !4
  %24 = call i32 @PyBytes_AsStringAndSize(ptr noundef %23, ptr noundef %8, ptr noundef null)
  %25 = icmp eq i32 %24, -1
  br i1 %25, label %26, label %27

26:                                               ; preds = %22
  br label %83

27:                                               ; preds = %22
  call void @llvm.lifetime.start.p0(i64 8, ptr %17) #6
  %28 = call ptr @PyEval_SaveThread()
  store ptr %28, ptr %17, align 8, !tbaa !20
  %29 = call i64 @sysconf(i32 noundef 70) #6
  store i64 %29, ptr %15, align 8, !tbaa !22
  %30 = load i64, ptr %15, align 8, !tbaa !22
  %31 = icmp eq i64 %30, -1
  br i1 %31, label %32, label %33

32:                                               ; preds = %27
  store i64 1024, ptr %15, align 8, !tbaa !22
  br label %33

33:                                               ; preds = %32, %27
  br label %34

34:                                               ; preds = %62, %33
  br label %35

35:                                               ; preds = %34
  %36 = load ptr, ptr %6, align 8, !tbaa !18
  %37 = load i64, ptr %15, align 8, !tbaa !22
  %38 = call ptr @PyMem_RawRealloc(ptr noundef %36, i64 noundef %37)
  store ptr %38, ptr %7, align 8, !tbaa !18
  %39 = load ptr, ptr %7, align 8, !tbaa !18
  %40 = icmp eq ptr %39, null
  br i1 %40, label %41, label %42

41:                                               ; preds = %35
  store ptr null, ptr %10, align 8, !tbaa !24
  store i32 1, ptr %9, align 4, !tbaa !13
  br label %65

42:                                               ; preds = %35
  %43 = load ptr, ptr %7, align 8, !tbaa !18
  store ptr %43, ptr %6, align 8, !tbaa !18
  %44 = load ptr, ptr %8, align 8, !tbaa !18
  %45 = load ptr, ptr %6, align 8, !tbaa !18
  %46 = load i64, ptr %15, align 8, !tbaa !22
  %47 = call i32 @getpwnam_r(ptr noundef %44, ptr noundef %16, ptr noundef %45, i64 noundef %46, ptr noundef %10)
  store i32 %47, ptr %14, align 4, !tbaa !13
  %48 = load i32, ptr %14, align 4, !tbaa !13
  %49 = icmp ne i32 %48, 0
  br i1 %49, label %50, label %51

50:                                               ; preds = %42
  store ptr null, ptr %10, align 8, !tbaa !24
  br label %51

51:                                               ; preds = %50, %42
  %52 = load ptr, ptr %10, align 8, !tbaa !24
  %53 = icmp ne ptr %52, null
  br i1 %53, label %57, label %54

54:                                               ; preds = %51
  %55 = load i32, ptr %14, align 4, !tbaa !13
  %56 = icmp ne i32 %55, 34
  br i1 %56, label %57, label %58

57:                                               ; preds = %54, %51
  br label %65

58:                                               ; preds = %54
  %59 = load i64, ptr %15, align 8, !tbaa !22
  %60 = icmp sgt i64 %59, 4611686018427387903
  br i1 %60, label %61, label %62

61:                                               ; preds = %58
  store i32 1, ptr %9, align 4, !tbaa !13
  br label %65

62:                                               ; preds = %58
  %63 = load i64, ptr %15, align 8, !tbaa !22
  %64 = shl i64 %63, 1
  store i64 %64, ptr %15, align 8, !tbaa !22
  br label %34

65:                                               ; preds = %61, %57, %41
  %66 = load ptr, ptr %17, align 8, !tbaa !20
  call void @PyEval_RestoreThread(ptr noundef %66)
  call void @llvm.lifetime.end.p0(i64 8, ptr %17) #6
  %67 = load ptr, ptr %10, align 8, !tbaa !24
  %68 = icmp eq ptr %67, null
  br i1 %68, label %69, label %79

69:                                               ; preds = %65
  %70 = load i32, ptr %9, align 4, !tbaa !13
  %71 = icmp eq i32 %70, 1
  br i1 %71, label %72, label %74

72:                                               ; preds = %69
  %73 = call ptr @PyErr_NoMemory()
  br label %78

74:                                               ; preds = %69
  %75 = load ptr, ptr @PyExc_KeyError, align 8, !tbaa !4
  %76 = load ptr, ptr %5, align 8, !tbaa !4
  %77 = call ptr (ptr, ptr, ...) @PyErr_Format(ptr noundef %75, ptr noundef @.str.8, ptr noundef %76)
  br label %78

78:                                               ; preds = %74, %72
  br label %83

79:                                               ; preds = %65
  %80 = load ptr, ptr %4, align 8, !tbaa !4
  %81 = load ptr, ptr %10, align 8, !tbaa !24
  %82 = call ptr @mkpwent(ptr noundef %80, ptr noundef %81)
  store ptr %82, ptr %12, align 8, !tbaa !4
  br label %83

83:                                               ; preds = %79, %78, %26
  %84 = load ptr, ptr %6, align 8, !tbaa !18
  call void @PyMem_RawFree(ptr noundef %84)
  %85 = load ptr, ptr %11, align 8, !tbaa !4
  call void @Py_DECREF(ptr noundef %85)
  %86 = load ptr, ptr %12, align 8, !tbaa !4
  store ptr %86, ptr %3, align 8
  store i32 1, ptr %13, align 4
  br label %87

87:                                               ; preds = %83, %21
  call void @llvm.lifetime.end.p0(i64 8, ptr %12) #6
  call void @llvm.lifetime.end.p0(i64 8, ptr %11) #6
  call void @llvm.lifetime.end.p0(i64 8, ptr %10) #6
  call void @llvm.lifetime.end.p0(i64 4, ptr %9) #6
  call void @llvm.lifetime.end.p0(i64 8, ptr %8) #6
  call void @llvm.lifetime.end.p0(i64 8, ptr %7) #6
  call void @llvm.lifetime.end.p0(i64 8, ptr %6) #6
  %88 = load ptr, ptr %3, align 8
  ret ptr %88
}

; Function Attrs: inlinehint nounwind uwtable
define internal i32 @PyType_HasFeature(ptr noundef %0, i64 noundef %1) #4 {
  %3 = alloca ptr, align 8
  %4 = alloca i64, align 8
  %5 = alloca i64, align 8
  store ptr %0, ptr %3, align 8, !tbaa !17
  store i64 %1, ptr %4, align 8, !tbaa !22
  call void @llvm.lifetime.start.p0(i64 8, ptr %5) #6
  %6 = load ptr, ptr %3, align 8, !tbaa !17
  %7 = call i64 @PyType_GetFlags(ptr noundef %6)
  store i64 %7, ptr %5, align 8, !tbaa !22
  %8 = load i64, ptr %5, align 8, !tbaa !22
  %9 = load i64, ptr %4, align 8, !tbaa !22
  %10 = and i64 %8, %9
  %11 = icmp ne i64 %10, 0
  %12 = zext i1 %11 to i32
  call void @llvm.lifetime.end.p0(i64 8, ptr %5) #6
  ret i32 %12
}

; Function Attrs: inlinehint nounwind uwtable
define internal ptr @_Py_TYPE(ptr noundef %0) #4 {
  %2 = alloca ptr, align 8
  store ptr %0, ptr %2, align 8, !tbaa !4
  %3 = load ptr, ptr %2, align 8, !tbaa !4
  %4 = getelementptr inbounds nuw %struct._object, ptr %3, i32 0, i32 1
  %5 = load ptr, ptr %4, align 8, !tbaa !34
  ret ptr %5
}

; Function Attrs: nounwind uwtable
define internal ptr @pwd_getpwnam(ptr noundef %0, ptr noundef %1) #0 {
  %3 = alloca ptr, align 8
  %4 = alloca ptr, align 8
  %5 = alloca ptr, align 8
  %6 = alloca ptr, align 8
  store ptr %0, ptr %3, align 8, !tbaa !4
  store ptr %1, ptr %4, align 8, !tbaa !4
  call void @llvm.lifetime.start.p0(i64 8, ptr %5) #6
  store ptr null, ptr %5, align 8, !tbaa !4
  call void @llvm.lifetime.start.p0(i64 8, ptr %6) #6
  %7 = load ptr, ptr %4, align 8, !tbaa !4
  %8 = call ptr @_Py_TYPE(ptr noundef %7)
  %9 = call i32 @PyType_HasFeature(ptr noundef %8, i64 noundef 268435456)
  %10 = icmp ne i32 %9, 0
  br i1 %10, label %15, label %11

11:                                               ; preds = %2
  %12 = load ptr, ptr @PyExc_TypeError, align 8, !tbaa !4
  %13 = load ptr, ptr %4, align 8, !tbaa !4
  %14 = call ptr (ptr, ptr, ...) @PyErr_Format(ptr noundef %12, ptr noundef @.str.7, ptr noundef %13)
  br label %20

15:                                               ; preds = %2
  %16 = load ptr, ptr %4, align 8, !tbaa !4
  store ptr %16, ptr %6, align 8, !tbaa !4
  %17 = load ptr, ptr %3, align 8, !tbaa !4
  %18 = load ptr, ptr %6, align 8, !tbaa !4
  %19 = call ptr @pwd_getpwnam_impl(ptr noundef %17, ptr noundef %18)
  store ptr %19, ptr %5, align 8, !tbaa !4
  br label %20

20:                                               ; preds = %15, %11
  %21 = load ptr, ptr %5, align 8, !tbaa !4
  call void @llvm.lifetime.end.p0(i64 8, ptr %6) #6
  call void @llvm.lifetime.end.p0(i64 8, ptr %5) #6
  ret ptr %21
}