; Function Attrs: nounwind uwtable
define internal ptr @pwd_getpwnam(ptr noundef %0, ptr noundef %1) #0 {
  %3 = alloca ptr, align 8
  %4 = alloca ptr, align 8
  %5 = alloca %struct.passwd, align 8
  %6 = getelementptr i8, ptr %1, i64 8
  %.val = load ptr, ptr %6, align 8, !tbaa !17
  %7 = tail call i64 @PyType_GetFlags(ptr noundef %.val) #4
  %8 = and i64 %7, 268435456
  %.not = icmp eq i64 %8, 0
  br i1 %.not, label %9, label %12

9:                                                ; preds = %2
  %10 = load ptr, ptr @PyExc_TypeError, align 8, !tbaa !11
  %11 = tail call ptr (ptr, ptr, ...) @PyErr_Format(ptr noundef %10, ptr noundef nonnull @.str.7, ptr noundef nonnull %1) #4
  br label %46

12:                                               ; preds = %2
  call void @llvm.lifetime.start.p0(i64 48, ptr nonnull %5)
  call void @llvm.lifetime.start.p0(i64 8, ptr nonnull %3) #4
  call void @llvm.lifetime.start.p0(i64 8, ptr nonnull %4) #4
  %13 = tail call ptr @PyUnicode_EncodeFSDefault(ptr noundef nonnull %1) #4
  %14 = icmp eq ptr %13, null
  br i1 %14, label %pwd_getpwnam_impl.exit, label %15

15:                                               ; preds = %12
  %16 = call i32 @PyBytes_AsStringAndSize(ptr noundef nonnull %13, ptr noundef nonnull %3, ptr noundef null) #4
  %17 = icmp eq i32 %16, -1
  br i1 %17, label %45, label %18

18:                                               ; preds = %15
  %19 = call ptr @PyEval_SaveThread() #4
  %20 = call i64 @sysconf(i32 noundef 70) #4
  %21 = icmp eq i64 %20, -1
  %spec.store.select.i = select i1 %21, i64 1024, i64 %20
  %22 = call ptr @PyMem_RawRealloc(ptr noundef null, i64 noundef %spec.store.select.i) #4
  %23 = icmp eq ptr %22, null
  br i1 %23, label %._crit_edge.i, label %.lr.ph.i

24:                                               ; preds = %32
  %25 = shl i64 %.02132.i, 1
  %26 = call ptr @PyMem_RawRealloc(ptr noundef nonnull %28, i64 noundef %25) #4
  %27 = icmp eq ptr %26, null
  br i1 %27, label %._crit_edge.i, label %.lr.ph.i

._crit_edge.i:                                    ; preds = %24, %18
  %.1.lcssa.i = phi ptr [ null, %18 ], [ %28, %24 ]
  store ptr null, ptr %4, align 8, !tbaa !13
  br label %.thread.i

.lr.ph.i:                                         ; preds = %18, %24
  %28 = phi ptr [ %26, %24 ], [ %22, %18 ]
  %.02132.i = phi i64 [ %25, %24 ], [ %spec.store.select.i, %18 ]
  %29 = load ptr, ptr %3, align 8, !tbaa !19
  %30 = call i32 @getpwnam_r(ptr noundef %29, ptr noundef nonnull %5, ptr noundef nonnull %28, i64 noundef %.02132.i, ptr noundef nonnull %4) #4
  %.not.i = icmp eq i32 %30, 0
  br i1 %.not.i, label %.thread.i, label %31

31:                                               ; preds = %.lr.ph.i
  store ptr null, ptr %4, align 8, !tbaa !13
  %.not29.i = icmp eq i32 %30, 34
  br i1 %.not29.i, label %32, label %.thread.i

32:                                               ; preds = %31
  %33 = icmp sgt i64 %.02132.i, 4611686018427387903
  br i1 %33, label %.thread.i, label %24

.thread.i:                                        ; preds = %32, %31, %.lr.ph.i, %._crit_edge.i
  %34 = phi i1 [ true, %._crit_edge.i ], [ false, %31 ], [ true, %32 ], [ false, %.lr.ph.i ]
  %.2.i = phi ptr [ %.1.lcssa.i, %._crit_edge.i ], [ %28, %.lr.ph.i ], [ %28, %31 ], [ %28, %32 ]
  call void @PyEval_RestoreThread(ptr noundef %19) #4
  %35 = load ptr, ptr %4, align 8, !tbaa !13
  %36 = icmp eq ptr %35, null
  br i1 %36, label %37, label %43

37:                                               ; preds = %.thread.i
  br i1 %34, label %38, label %40

38:                                               ; preds = %37
  %39 = call ptr @PyErr_NoMemory() #4
  br label %45

40:                                               ; preds = %37
  %41 = load ptr, ptr @PyExc_KeyError, align 8, !tbaa !11
  %42 = call ptr (ptr, ptr, ...) @PyErr_Format(ptr noundef %41, ptr noundef nonnull @.str.8, ptr noundef nonnull %1) #4
  br label %45

43:                                               ; preds = %.thread.i
  %44 = call fastcc ptr @mkpwent(ptr noundef %0, ptr noundef %35)
  br label %45

45:                                               ; preds = %43, %40, %38, %15
  %.023.i = phi ptr [ null, %15 ], [ null, %38 ], [ null, %40 ], [ %44, %43 ]
  %.022.i = phi ptr [ null, %15 ], [ %.2.i, %38 ], [ %.2.i, %40 ], [ %.2.i, %43 ]
  call void @PyMem_RawFree(ptr noundef %.022.i) #4
  call void @_Py_DecRef(ptr noundef nonnull %13) #4
  br label %pwd_getpwnam_impl.exit

pwd_getpwnam_impl.exit:                           ; preds = %12, %45
  %.0.i = phi ptr [ %.023.i, %45 ], [ null, %12 ]
  call void @llvm.lifetime.end.p0(i64 8, ptr nonnull %4) #4
  call void @llvm.lifetime.end.p0(i64 8, ptr nonnull %3) #4
  call void @llvm.lifetime.end.p0(i64 48, ptr nonnull %5)
  br label %46

46:                                               ; preds = %pwd_getpwnam_impl.exit, %9
  %.0 = phi ptr [ %.0.i, %pwd_getpwnam_impl.exit ], [ null, %9 ]
  ret ptr %.0
}